target datalayout = "e-m:e-p270:32:32-p271:32:32-p272:64:64-i64:64-i128:128-f80:128-n8:16:32:64-S128"
target triple = "x86_64-pc-linux-gnu"

%struct.mbedtls_camellia_context = type { i32, [68 x i32] }

; Function Attrs: nounwind uwtable
define hidden void @mbedtls_camellia_free(ptr noundef %0) #0 {
  %2 = alloca ptr, align 8
  store ptr %0, ptr %2, align 8, !tbaa !3
  %3 = load ptr, ptr %2, align 8, !tbaa !3
  %4 = icmp eq ptr %3, null
  br i1 %4, label %5, label %6

5:                                                ; preds = %1
  br label %8

6:                                                ; preds = %1
  %7 = load ptr, ptr %2, align 8, !tbaa !3
  call void @mbedtls_platform_zeroize(ptr noundef %7, i64 noundef 276)
  br label %8

8:                                                ; preds = %6, %5
  ret void
}

; Function Attrs: nounwind uwtable
define hidden void @mbedtls_camellia_init(ptr noundef %0) #0 {
  %2 = alloca ptr, align 8
  store ptr %0, ptr %2, align 8, !tbaa !3
  %3 = load ptr, ptr %2, align 8, !tbaa !3
  call void @llvm.memset.p0.i64(ptr align 4 %3, i8 0, i64 276, i1 false)
  ret void
}

; Function Attrs: nounwind uwtable
define hidden i32 @mbedtls_camellia_setkey_dec(ptr noundef %0, ptr noundef %1, i32 noundef %2) #0 {
  %4 = alloca ptr, align 8
  %5 = alloca ptr, align 8
  %6 = alloca i32, align 4
  %7 = alloca i32, align 4
  %8 = alloca i32, align 4
  %9 = alloca i64, align 8
  %10 = alloca %struct.mbedtls_camellia_context, align 4
  %11 = alloca ptr, align 8
  %12 = alloca ptr, align 8
  store ptr %0, ptr %4, align 8, !tbaa !3
  store ptr %1, ptr %5, align 8, !tbaa !8
  store i32 %2, ptr %6, align 4, !tbaa !10
  call void @llvm.lifetime.start.p0(i64 4, ptr %7) #8
  call void @llvm.lifetime.start.p0(i64 4, ptr %8) #8
  call void @llvm.lifetime.start.p0(i64 8, ptr %9) #8
  call void @llvm.lifetime.start.p0(i64 276, ptr %10) #8
  call void @llvm.lifetime.start.p0(i64 8, ptr %11) #8
  call void @llvm.lifetime.start.p0(i64 8, ptr %12) #8
  call void @mbedtls_camellia_init(ptr noundef %10)
  %13 = load ptr, ptr %5, align 8, !tbaa !8
  %14 = load i32, ptr %6, align 4, !tbaa !10
  %15 = call i32 @mbedtls_camellia_setkey_enc(ptr noundef %10, ptr noundef %13, i32 noundef %14)
  store i32 %15, ptr %8, align 4, !tbaa !10
  %16 = icmp ne i32 %15, 0
  br i1 %16, label %17, label %18

17:                                               ; preds = %3
  br label %107

18:                                               ; preds = %3
  %19 = getelementptr inbounds nuw %struct.mbedtls_camellia_context, ptr %10, i32 0, i32 0
  %20 = load i32, ptr %19, align 4, !tbaa !14
  %21 = load ptr, ptr %4, align 8, !tbaa !3
  %22 = getelementptr inbounds nuw %struct.mbedtls_camellia_context, ptr %21, i32 0, i32 0
  store i32 %20, ptr %22, align 4, !tbaa !14
  %23 = load ptr, ptr %4, align 8, !tbaa !3
  %24 = getelementptr inbounds nuw %struct.mbedtls_camellia_context, ptr %23, i32 0, i32 0
  %25 = load i32, ptr %24, align 4, !tbaa !14
  %26 = icmp eq i32 %25, 4
  %27 = zext i1 %26 to i32
  store i32 %27, ptr %7, align 4, !tbaa !10
  %28 = load ptr, ptr %4, align 8, !tbaa !3
  %29 = getelementptr inbounds nuw %struct.mbedtls_camellia_context, ptr %28, i32 0, i32 1
  %30 = getelementptr inbounds [68 x i32], ptr %29, i64 0, i64 0
  store ptr %30, ptr %11, align 8, !tbaa !12
  %31 = getelementptr inbounds nuw %struct.mbedtls_camellia_context, ptr %10, i32 0, i32 1
  %32 = getelementptr inbounds [68 x i32], ptr %31, i64 0, i64 0
  %33 = getelementptr inbounds i32, ptr %32, i64 48
  %34 = load i32, ptr %7, align 4, !tbaa !10
  %35 = mul nsw i32 8, %34
  %36 = mul nsw i32 %35, 2
  %37 = sext i32 %36 to i64
  %38 = getelementptr inbounds i32, ptr %33, i64 %37
  store ptr %38, ptr %12, align 8, !tbaa !12
  %39 = load ptr, ptr %12, align 8, !tbaa !12
  %40 = getelementptr inbounds nuw i32, ptr %39, i32 1
  store ptr %40, ptr %12, align 8, !tbaa !12
  %41 = load i32, ptr %39, align 4, !tbaa !10
  %42 = load ptr, ptr %11, align 8, !tbaa !12
  %43 = getelementptr inbounds nuw i32, ptr %42, i32 1
  store ptr %43, ptr %11, align 8, !tbaa !12
  store i32 %41, ptr %42, align 4, !tbaa !10
  %44 = load ptr, ptr %12, align 8, !tbaa !12
  %45 = getelementptr inbounds nuw i32, ptr %44, i32 1
  store ptr %45, ptr %12, align 8, !tbaa !12
  %46 = load i32, ptr %44, align 4, !tbaa !10
  %47 = load ptr, ptr %11, align 8, !tbaa !12
  %48 = getelementptr inbounds nuw i32, ptr %47, i32 1
  store ptr %48, ptr %11, align 8, !tbaa !12
  store i32 %46, ptr %47, align 4, !tbaa !10
  %49 = load ptr, ptr %12, align 8, !tbaa !12
  %50 = getelementptr inbounds nuw i32, ptr %49, i32 1
  store ptr %50, ptr %12, align 8, !tbaa !12
  %51 = load i32, ptr %49, align 4, !tbaa !10
  %52 = load ptr, ptr %11, align 8, !tbaa !12
  %53 = getelementptr inbounds nuw i32, ptr %52, i32 1
  store ptr %53, ptr %11, align 8, !tbaa !12
  store i32 %51, ptr %52, align 4, !tbaa !10
  %54 = load ptr, ptr %12, align 8, !tbaa !12
  %55 = getelementptr inbounds nuw i32, ptr %54, i32 1
  store ptr %55, ptr %12, align 8, !tbaa !12
  %56 = load i32, ptr %54, align 4, !tbaa !10
  %57 = load ptr, ptr %11, align 8, !tbaa !12
  %58 = getelementptr inbounds nuw i32, ptr %57, i32 1
  store ptr %58, ptr %11, align 8, !tbaa !12
  store i32 %56, ptr %57, align 4, !tbaa !10
  %59 = load i32, ptr %7, align 4, !tbaa !10
  %60 = mul nsw i32 8, %59
  %61 = add nsw i32 22, %60
  %62 = sext i32 %61 to i64
  store i64 %62, ptr %9, align 8, !tbaa !16
  %63 = load ptr, ptr %12, align 8, !tbaa !12
  %64 = getelementptr inbounds i32, ptr %63, i64 -6
  store ptr %64, ptr %12, align 8, !tbaa !12
  br label %65

65:                                               ; preds = %79, %18
  %66 = load i64, ptr %9, align 8, !tbaa !16
  %67 = icmp ugt i64 %66, 0
  br i1 %67, label %68, label %84

68:                                               ; preds = %65
  %69 = load ptr, ptr %12, align 8, !tbaa !12
  %70 = getelementptr inbounds nuw i32, ptr %69, i32 1
  store ptr %70, ptr %12, align 8, !tbaa !12
  %71 = load i32, ptr %69, align 4, !tbaa !10
  %72 = load ptr, ptr %11, align 8, !tbaa !12
  %73 = getelementptr inbounds nuw i32, ptr %72, i32 1
  store ptr %73, ptr %11, align 8, !tbaa !12
  store i32 %71, ptr %72, align 4, !tbaa !10
  %74 = load ptr, ptr %12, align 8, !tbaa !12
  %75 = getelementptr inbounds nuw i32, ptr %74, i32 1
  store ptr %75, ptr %12, align 8, !tbaa !12
  %76 = load i32, ptr %74, align 4, !tbaa !10
  %77 = load ptr, ptr %11, align 8, !tbaa !12
  %78 = getelementptr inbounds nuw i32, ptr %77, i32 1
  store ptr %78, ptr %11, align 8, !tbaa !12
  store i32 %76, ptr %77, align 4, !tbaa !10
  br label %79

79:                                               ; preds = %68
  %80 = load i64, ptr %9, align 8, !tbaa !16
  %81 = add i64 %80, -1
  store i64 %81, ptr %9, align 8, !tbaa !16
  %82 = load ptr, ptr %12, align 8, !tbaa !12
  %83 = getelementptr inbounds i32, ptr %82, i64 -4
  store ptr %83, ptr %12, align 8, !tbaa !12
  br label %65, !llvm.loop !37

84:                                               ; preds = %65
  %85 = load ptr, ptr %12, align 8, !tbaa !12
  %86 = getelementptr inbounds i32, ptr %85, i64 -2
  store ptr %86, ptr %12, align 8, !tbaa !12
  %87 = load ptr, ptr %12, align 8, !tbaa !12
  %88 = getelementptr inbounds nuw i32, ptr %87, i32 1
  store ptr %88, ptr %12, align 8, !tbaa !12
  %89 = load i32, ptr %87, align 4, !tbaa !10
  %90 = load ptr, ptr %11, align 8, !tbaa !12
  %91 = getelementptr inbounds nuw i32, ptr %90, i32 1
  store ptr %91, ptr %11, align 8, !tbaa !12
  store i32 %89, ptr %90, align 4, !tbaa !10
  %92 = load ptr, ptr %12, align 8, !tbaa !12
  %93 = getelementptr inbounds nuw i32, ptr %92, i32 1
  store ptr %93, ptr %12, align 8, !tbaa !12
  %94 = load i32, ptr %92, align 4, !tbaa !10
  %95 = load ptr, ptr %11, align 8, !tbaa !12
  %96 = getelementptr inbounds nuw i32, ptr %95, i32 1
  store ptr %96, ptr %11, align 8, !tbaa !12
  store i32 %94, ptr %95, align 4, !tbaa !10
  %97 = load ptr, ptr %12, align 8, !tbaa !12
  %98 = getelementptr inbounds nuw i32, ptr %97, i32 1
  store ptr %98, ptr %12, align 8, !tbaa !12
  %99 = load i32, ptr %97, align 4, !tbaa !10
  %100 = load ptr, ptr %11, align 8, !tbaa !12
  %101 = getelementptr inbounds nuw i32, ptr %100, i32 1
  store ptr %101, ptr %11, align 8, !tbaa !12
  store i32 %99, ptr %100, align 4, !tbaa !10
  %102 = load ptr, ptr %12, align 8, !tbaa !12
  %103 = getelementptr inbounds nuw i32, ptr %102, i32 1
  store ptr %103, ptr %12, align 8, !tbaa !12
  %104 = load i32, ptr %102, align 4, !tbaa !10
  %105 = load ptr, ptr %11, align 8, !tbaa !12
  %106 = getelementptr inbounds nuw i32, ptr %105, i32 1
  store ptr %106, ptr %11, align 8, !tbaa !12
  store i32 %104, ptr %105, align 4, !tbaa !10
  br label %107

107:                                              ; preds = %84, %17
  call void @mbedtls_camellia_free(ptr noundef %10)
  %108 = load i32, ptr %8, align 4, !tbaa !10
  call void @llvm.lifetime.end.p0(i64 8, ptr %12) #8
  call void @llvm.lifetime.end.p0(i64 8, ptr %11) #8
  call void @llvm.lifetime.end.p0(i64 276, ptr %10) #8
  call void @llvm.lifetime.end.p0(i64 8, ptr %9) #8
  call void @llvm.lifetime.end.p0(i64 4, ptr %8) #8
  call void @llvm.lifetime.end.p0(i64 4, ptr %7) #8
  ret i32 %108
}