; Function Attrs: nounwind uwtable
define hidden range(i32 -36, 1) i32 @mbedtls_camellia_setkey_dec(ptr noundef writeonly captures(none) %0, ptr noundef readonly captures(none) %1, i32 noundef %2) local_unnamed_addr #2 {
  %4 = alloca %struct.mbedtls_camellia_context, align 4
  call void @llvm.lifetime.start.p0(i64 276, ptr nonnull %4) #12
  call void @llvm.memset.p0.i64(ptr noundef nonnull align 4 dereferenceable(276) %4, i8 0, i64 276, i1 false)
  %5 = call i32 @mbedtls_camellia_setkey_enc(ptr noundef nonnull %4, ptr noundef %1, i32 noundef %2)
  %.not = icmp eq i32 %5, 0
  br i1 %.not, label %6, label %46

6:                                                ; preds = %3
  %7 = load i32, ptr %4, align 4, !tbaa !3
  store i32 %7, ptr %0, align 4, !tbaa !3
  %8 = icmp eq i32 %7, 4
  %9 = getelementptr inbounds nuw i8, ptr %0, i64 4
  %10 = getelementptr inbounds nuw i8, ptr %4, i64 196
  %11 = select i1 %8, i32 8, i32 0
  %12 = shl nuw nsw i32 %11, 1
  %13 = zext nneg i32 %12 to i64
  %14 = getelementptr inbounds nuw i32, ptr %10, i64 %13
  %15 = getelementptr inbounds nuw i8, ptr %14, i64 4
  %16 = load i32, ptr %14, align 4, !tbaa !11
  %17 = getelementptr inbounds nuw i8, ptr %0, i64 8
  store i32 %16, ptr %9, align 4, !tbaa !11
  %18 = getelementptr inbounds nuw i8, ptr %14, i64 8
  %19 = load i32, ptr %15, align 4, !tbaa !11
  %20 = getelementptr inbounds nuw i8, ptr %0, i64 12
  store i32 %19, ptr %17, align 4, !tbaa !11
  %21 = getelementptr inbounds nuw i8, ptr %14, i64 12
  %22 = load i32, ptr %18, align 4, !tbaa !11
  %23 = getelementptr inbounds nuw i8, ptr %0, i64 16
  store i32 %22, ptr %20, align 4, !tbaa !11
  %24 = load i32, ptr %21, align 4, !tbaa !11
  %25 = getelementptr inbounds nuw i8, ptr %0, i64 20
  store i32 %24, ptr %23, align 4, !tbaa !11
  %26 = or disjoint i32 %11, 22
  %27 = zext nneg i32 %26 to i64
  %.035 = getelementptr inbounds i8, ptr %14, i64 -8
  br label %28

28:                                               ; preds = %6, %28
  %.039 = phi ptr [ %.035, %6 ], [ %.0, %28 ]
  %.pn38 = phi ptr [ %14, %6 ], [ %.039, %28 ]
  %.03237 = phi ptr [ %25, %6 ], [ %33, %28 ]
  %.03336 = phi i64 [ %27, %6 ], [ %34, %28 ]
  %29 = getelementptr inbounds i8, ptr %.pn38, i64 -4
  %30 = load i32, ptr %.039, align 4, !tbaa !11
  %31 = getelementptr inbounds nuw i8, ptr %.03237, i64 4
  store i32 %30, ptr %.03237, align 4, !tbaa !11
  %32 = load i32, ptr %29, align 4, !tbaa !11
  %33 = getelementptr inbounds nuw i8, ptr %.03237, i64 8
  store i32 %32, ptr %31, align 4, !tbaa !11
  %34 = add nsw i64 %.03336, -1
  %.0 = getelementptr inbounds i8, ptr %.039, i64 -8
  %.not34 = icmp eq i64 %34, 0
  br i1 %.not34, label %35, label %28, !llvm.loop !26

35:                                               ; preds = %28
  %36 = getelementptr inbounds i8, ptr %.039, i64 -16
  %37 = getelementptr inbounds i8, ptr %.039, i64 -12
  %38 = load i32, ptr %36, align 4, !tbaa !11
  %39 = getelementptr inbounds nuw i8, ptr %.03237, i64 12
  store i32 %38, ptr %33, align 4, !tbaa !11
  %40 = load i32, ptr %37, align 4, !tbaa !11
  %41 = getelementptr inbounds nuw i8, ptr %.03237, i64 16
  store i32 %40, ptr %39, align 4, !tbaa !11
  %42 = getelementptr inbounds i8, ptr %.039, i64 -4
  %43 = load i32, ptr %.0, align 4, !tbaa !11
  %44 = getelementptr inbounds nuw i8, ptr %.03237, i64 20
  store i32 %43, ptr %41, align 4, !tbaa !11
  %45 = load i32, ptr %42, align 4, !tbaa !11
  store i32 %45, ptr %44, align 4, !tbaa !11
  br label %46

46:                                               ; preds = %3, %35
  call void @mbedtls_platform_zeroize(ptr noundef nonnull %4, i64 noundef 276) #12
  call void @llvm.lifetime.end.p0(i64 276, ptr nonnull %4) #12
  ret i32 %5
}